target datalayout = "e-m:e-p270:32:32-p271:32:32-p272:64:64-i64:64-i128:128-f80:128-n8:16:32:64-S128"
target triple = "x86_64-pc-linux-gnu"

%struct.APK_DATA_st = type { ptr, i64, i32 }

@.str.28 = private unnamed_addr constant [34 x i8] c"../openssl/test/evp_extra_test2.c\00", align 1
@.str.64 = private unnamed_addr constant [47 x i8] c"provider = OSSL_PROVIDER_load(NULL, \22default\22)\00", align 1
@.str.65 = private unnamed_addr constant [8 x i8] c"default\00", align 1
@.str.66 = private unnamed_addr constant [62 x i8] c"key_bio = BIO_new_mem_buf(keydata[id].kder, keydata[id].size)\00", align 1
@.str.67 = private unnamed_addr constant [58 x i8] c"pkey = PEM_read_bio_PrivateKey(key_bio, NULL, NULL, NULL)\00", align 1
@.str.68 = private unnamed_addr constant [21 x i8] c"BIO_seek(key_bio, 0)\00", align 1
@.str.69 = private unnamed_addr constant [2 x i8] c"0\00", align 1
@.str.70 = private unnamed_addr constant [41 x i8] c"pkey = d2i_PrivateKey_bio(key_bio, NULL)\00", align 1
@.str.71 = private unnamed_addr constant [17 x i8] c"ERR_peek_error()\00", align 1

; Function Attrs: nounwind uwtable
define internal i32 @test_d2i_PrivateKey_ex(i32 noundef %0) #0 {
  %2 = alloca i32, align 4
  %3 = alloca i32, align 4
  %4 = alloca ptr, align 8
  %5 = alloca ptr, align 8
  %6 = alloca ptr, align 8
  %7 = alloca i32, align 4
  store i32 %0, ptr %2, align 4, !tbaa !11
  call void @llvm.lifetime.start.p0(i64 4, ptr %3) #7
  store i32 0, ptr %3, align 4, !tbaa !11
  call void @llvm.lifetime.start.p0(i64 8, ptr %4) #7
  store ptr null, ptr %4, align 8, !tbaa !27
  call void @llvm.lifetime.start.p0(i64 8, ptr %5) #7
  store ptr null, ptr %5, align 8, !tbaa !31
  call void @llvm.lifetime.start.p0(i64 8, ptr %6) #7
  store ptr null, ptr %6, align 8, !tbaa !13
  call void @llvm.lifetime.start.p0(i64 4, ptr %7) #7
  %8 = load i32, ptr %2, align 4, !tbaa !11
  %9 = icmp eq i32 %8, 0
  %10 = select i1 %9, i32 0, i32 2
  store i32 %10, ptr %7, align 4, !tbaa !11
  %11 = call ptr @OSSL_PROVIDER_load(ptr noundef null, ptr noundef @.str.65)
  store ptr %11, ptr %4, align 8, !tbaa !27
  %12 = call i32 @test_ptr(ptr noundef @.str.28, i32 noundef 760, ptr noundef @.str.64, ptr noundef %11)
  %13 = icmp ne i32 %12, 0
  br i1 %13, label %15, label %14

14:                                               ; preds = %1
  br label %51

15:                                               ; preds = %1
  %16 = load i32, ptr %7, align 4, !tbaa !11
  %17 = sext i32 %16 to i64
  %18 = getelementptr inbounds [6 x %struct.APK_DATA_st], ptr @keydata, i64 0, i64 %17
  %19 = getelementptr inbounds nuw %struct.APK_DATA_st, ptr %18, i32 0, i32 0
  %20 = load ptr, ptr %19, align 8, !tbaa !17
  %21 = load i32, ptr %7, align 4, !tbaa !11
  %22 = sext i32 %21 to i64
  %23 = getelementptr inbounds [6 x %struct.APK_DATA_st], ptr @keydata, i64 0, i64 %22
  %24 = getelementptr inbounds nuw %struct.APK_DATA_st, ptr %23, i32 0, i32 1
  %25 = load i64, ptr %24, align 8, !tbaa !22
  %26 = trunc i64 %25 to i32
  %27 = call ptr @BIO_new_mem_buf(ptr noundef %20, i32 noundef %26)
  store ptr %27, ptr %5, align 8, !tbaa !31
  %28 = call i32 @test_ptr(ptr noundef @.str.28, i32 noundef 762, ptr noundef @.str.66, ptr noundef %27)
  %29 = icmp ne i32 %28, 0
  br i1 %29, label %31, label %30

30:                                               ; preds = %15
  br label %51

31:                                               ; preds = %15
  %32 = load ptr, ptr %5, align 8, !tbaa !31
  %33 = call ptr @PEM_read_bio_PrivateKey(ptr noundef %32, ptr noundef null, ptr noundef null, ptr noundef null)
  store ptr %33, ptr %6, align 8, !tbaa !13
  %34 = call i32 @test_ptr_null(ptr noundef @.str.28, i32 noundef 764, ptr noundef @.str.67, ptr noundef %33)
  %35 = icmp ne i32 %34, 0
  br i1 %35, label %37, label %36

36:                                               ; preds = %31
  br label %51

37:                                               ; preds = %31
  call void @ERR_clear_error()
  %38 = load ptr, ptr %5, align 8, !tbaa !31
  %39 = call i64 @BIO_ctrl(ptr noundef %38, i32 noundef 128, i64 noundef 0, ptr noundef null)
  %40 = trunc i64 %39 to i32
  %41 = call i32 @test_int_ge(ptr noundef @.str.28, i32 noundef 768, ptr noundef @.str.68, ptr noundef @.str.69, i32 noundef %40, i32 noundef 0)
  %42 = icmp ne i32 %41, 0
  br i1 %42, label %44, label %43

43:                                               ; preds = %37
  br label %51

44:                                               ; preds = %37
  %45 = load ptr, ptr %5, align 8, !tbaa !31
  %46 = call ptr @d2i_PrivateKey_bio(ptr noundef %45, ptr noundef null)
  store ptr %46, ptr %6, align 8, !tbaa !13
  %47 = call i32 @test_ptr(ptr noundef @.str.28, i32 noundef 770, ptr noundef @.str.70, ptr noundef %46)
  store i32 %47, ptr %3, align 4, !tbaa !11
  %48 = call i64 @ERR_peek_error()
  %49 = trunc i64 %48 to i32
  %50 = call i32 @test_int_eq(ptr noundef @.str.28, i32 noundef 771, ptr noundef @.str.71, ptr noundef @.str.69, i32 noundef %49, i32 noundef 0)
  call void @test_openssl_errors()
  br label %51

51:                                               ; preds = %44, %43, %36, %30, %14
  %52 = load ptr, ptr %6, align 8, !tbaa !13
  call void @EVP_PKEY_free(ptr noundef %52)
  %53 = load ptr, ptr %5, align 8, !tbaa !31
  %54 = call i32 @BIO_free(ptr noundef %53)
  %55 = load ptr, ptr %4, align 8, !tbaa !27
  %56 = call i32 @OSSL_PROVIDER_unload(ptr noundef %55)
  %57 = load i32, ptr %3, align 4, !tbaa !11
  call void @llvm.lifetime.end.p0(i64 4, ptr %7) #7
  call void @llvm.lifetime.end.p0(i64 8, ptr %6) #7
  call void @llvm.lifetime.end.p0(i64 8, ptr %5) #7
  call void @llvm.lifetime.end.p0(i64 8, ptr %4) #7
  call void @llvm.lifetime.end.p0(i64 4, ptr %3) #7
  ret i32 %57
}