; Function Attrs: nounwind uwtable
define internal i32 @test_d2i_PrivateKey_ex(i32 noundef %0) #0 {
  %2 = tail call ptr @OSSL_PROVIDER_load(ptr noundef null, ptr noundef nonnull @.str.65) #7
  %3 = tail call i32 @test_ptr(ptr noundef nonnull @.str.28, i32 noundef 760, ptr noundef nonnull @.str.64, ptr noundef %2) #7
  %.not = icmp eq i32 %3, 0
  br i1 %.not, label %27, label %4

4:                                                ; preds = %1
  %5 = icmp eq i32 %0, 0
  %6 = select i1 %5, i64 0, i64 2
  %7 = getelementptr inbounds nuw [6 x %struct.APK_DATA_st], ptr @keydata, i64 0, i64 %6
  %8 = load ptr, ptr %7, align 16, !tbaa !9
  %9 = getelementptr inbounds nuw i8, ptr %7, i64 8
  %10 = load i64, ptr %9, align 8, !tbaa !14
  %11 = trunc i64 %10 to i32
  %12 = tail call ptr @BIO_new_mem_buf(ptr noundef %8, i32 noundef %11) #7
  %13 = tail call i32 @test_ptr(ptr noundef nonnull @.str.28, i32 noundef 762, ptr noundef nonnull @.str.66, ptr noundef %12) #7
  %.not11 = icmp eq i32 %13, 0
  br i1 %.not11, label %27, label %14

14:                                               ; preds = %4
  %15 = tail call ptr @PEM_read_bio_PrivateKey(ptr noundef %12, ptr noundef null, ptr noundef null, ptr noundef null) #7
  %16 = tail call i32 @test_ptr_null(ptr noundef nonnull @.str.28, i32 noundef 764, ptr noundef nonnull @.str.67, ptr noundef %15) #7
  %.not12 = icmp eq i32 %16, 0
  br i1 %.not12, label %27, label %17

17:                                               ; preds = %14
  tail call void @ERR_clear_error() #7
  %18 = tail call i64 @BIO_ctrl(ptr noundef %12, i32 noundef 128, i64 noundef 0, ptr noundef null) #7
  %19 = trunc i64 %18 to i32
  %20 = tail call i32 @test_int_ge(ptr noundef nonnull @.str.28, i32 noundef 768, ptr noundef nonnull @.str.68, ptr noundef nonnull @.str.69, i32 noundef %19, i32 noundef 0) #7
  %.not13 = icmp eq i32 %20, 0
  br i1 %.not13, label %27, label %21

21:                                               ; preds = %17
  %22 = tail call ptr @d2i_PrivateKey_bio(ptr noundef %12, ptr noundef null) #7
  %23 = tail call i32 @test_ptr(ptr noundef nonnull @.str.28, i32 noundef 770, ptr noundef nonnull @.str.70, ptr noundef %22) #7
  %24 = tail call i64 @ERR_peek_error() #7
  %25 = trunc i64 %24 to i32
  %26 = tail call i32 @test_int_eq(ptr noundef nonnull @.str.28, i32 noundef 771, ptr noundef nonnull @.str.71, ptr noundef nonnull @.str.69, i32 noundef %25, i32 noundef 0) #7
  tail call void @test_openssl_errors() #7
  br label %27

27:                                               ; preds = %17, %14, %4, %1, %21
  %.010 = phi ptr [ %12, %21 ], [ %12, %17 ], [ %12, %14 ], [ %12, %4 ], [ null, %1 ]
  %.09 = phi ptr [ %22, %21 ], [ %15, %17 ], [ %15, %14 ], [ null, %4 ], [ null, %1 ]
  %.0 = phi i32 [ %23, %21 ], [ 0, %17 ], [ 0, %14 ], [ 0, %4 ], [ 0, %1 ]
  tail call void @EVP_PKEY_free(ptr noundef %.09) #7
  %28 = tail call i32 @BIO_free(ptr noundef %.010) #7
  %29 = tail call i32 @OSSL_PROVIDER_unload(ptr noundef %2) #7
  ret i32 %.0
}